target datalayout = "e-m:e-p270:32:32-p271:32:32-p272:64:64-i64:64-i128:128-f80:128-n8:16:32:64-S128"
target triple = "x86_64-pc-linux-gnu"

@.str.18 = private unnamed_addr constant [13 x i8] c"dbcommands.c\00", align 1
@.str.76 = private unnamed_addr constant [41 x i8] c"encoding \22%s\22 does not match locale \22%s\22\00", align 1
@.str.77 = private unnamed_addr constant [52 x i8] c"The chosen LC_CTYPE setting requires encoding \22%s\22.\00", align 1
@__func__.check_encoding_locale_matches = private unnamed_addr constant [30 x i8] c"check_encoding_locale_matches\00", align 1
@.str.78 = private unnamed_addr constant [54 x i8] c"The chosen LC_COLLATE setting requires encoding \22%s\22.\00", align 1

; Function Attrs: nounwind uwtable
define dso_local void @check_encoding_locale_matches(i32 noundef %0, ptr noundef %1, ptr noundef %2) #0 {
  %4 = alloca i32, align 4
  %5 = alloca ptr, align 8
  %6 = alloca ptr, align 8
  %7 = alloca i32, align 4
  %8 = alloca i32, align 4
  store i32 %0, ptr %4, align 4
  store ptr %1, ptr %5, align 8
  store ptr %2, ptr %6, align 8
  call void @llvm.lifetime.start.p0(i64 4, ptr %7) #14
  %9 = load ptr, ptr %6, align 8
  %10 = call i32 @pg_get_encoding_from_locale(ptr noundef %9, i1 noundef zeroext true)
  store i32 %10, ptr %7, align 4
  call void @llvm.lifetime.start.p0(i64 4, ptr %8) #14
  %11 = load ptr, ptr %5, align 8
  %12 = call i32 @pg_get_encoding_from_locale(ptr noundef %11, i1 noundef zeroext true)
  store i32 %12, ptr %8, align 4
  %13 = load i32, ptr %7, align 4
  %14 = load i32, ptr %4, align 4
  %15 = icmp eq i32 %13, %14
  br i1 %15, label %45, label %16

16:                                               ; preds = %3
  %17 = load i32, ptr %7, align 4
  %18 = icmp eq i32 %17, 0
  br i1 %18, label %45, label %19

19:                                               ; preds = %16
  %20 = load i32, ptr %7, align 4
  %21 = icmp eq i32 %20, -1
  br i1 %21, label %45, label %22

22:                                               ; preds = %19
  %23 = load i32, ptr %4, align 4
  %24 = icmp eq i32 %23, 0
  br i1 %24, label %25, label %27

25:                                               ; preds = %22
  %26 = call zeroext i1 @superuser()
  br i1 %26, label %45, label %27

27:                                               ; preds = %25, %22
  br label %28

28:                                               ; preds = %27
  br i1 true, label %29, label %31

29:                                               ; preds = %28
  %30 = call zeroext i1 @errstart_cold(i32 noundef 21, ptr noundef null) #17
  br i1 %30, label %33, label %42

31:                                               ; preds = %28
  %32 = call zeroext i1 @errstart(i32 noundef 21, ptr noundef null)
  br i1 %32, label %33, label %42

33:                                               ; preds = %31, %29
  %34 = call i32 @errcode(i32 noundef 50856066)
  %35 = load i32, ptr %4, align 4
  %36 = call ptr @pg_encoding_to_char_private(i32 noundef %35)
  %37 = load ptr, ptr %6, align 8
  %38 = call i32 (ptr, ...) @errmsg(ptr noundef @.str.76, ptr noundef %36, ptr noundef %37)
  %39 = load i32, ptr %7, align 4
  %40 = call ptr @pg_encoding_to_char_private(i32 noundef %39)
  %41 = call i32 (ptr, ...) @errdetail(ptr noundef @.str.77, ptr noundef %40)
  call void @errfinish(ptr noundef @.str.18, i32 noundef 1588, ptr noundef @__func__.check_encoding_locale_matches)
  br label %42

42:                                               ; preds = %33, %31, %29
  unreachable

43:                                               ; No predecessors!
  br label %44

44:                                               ; preds = %43
  br label %45

45:                                               ; preds = %44, %25, %19, %16, %3
  %46 = load i32, ptr %8, align 4
  %47 = load i32, ptr %4, align 4
  %48 = icmp eq i32 %46, %47
  br i1 %48, label %78, label %49

49:                                               ; preds = %45
  %50 = load i32, ptr %8, align 4
  %51 = icmp eq i32 %50, 0
  br i1 %51, label %78, label %52

52:                                               ; preds = %49
  %53 = load i32, ptr %8, align 4
  %54 = icmp eq i32 %53, -1
  br i1 %54, label %78, label %55

55:                                               ; preds = %52
  %56 = load i32, ptr %4, align 4
  %57 = icmp eq i32 %56, 0
  br i1 %57, label %58, label %60

58:                                               ; preds = %55
  %59 = call zeroext i1 @superuser()
  br i1 %59, label %78, label %60

60:                                               ; preds = %58, %55
  br label %61

61:                                               ; preds = %60
  br i1 true, label %62, label %64

62:                                               ; preds = %61
  %63 = call zeroext i1 @errstart_cold(i32 noundef 21, ptr noundef null) #17
  br i1 %63, label %66, label %75

64:                                               ; preds = %61
  %65 = call zeroext i1 @errstart(i32 noundef 21, ptr noundef null)
  br i1 %65, label %66, label %75

66:                                               ; preds = %64, %62
  %67 = call i32 @errcode(i32 noundef 50856066)
  %68 = load i32, ptr %4, align 4
  %69 = call ptr @pg_encoding_to_char_private(i32 noundef %68)
  %70 = load ptr, ptr %5, align 8
  %71 = call i32 (ptr, ...) @errmsg(ptr noundef @.str.76, ptr noundef %69, ptr noundef %70)
  %72 = load i32, ptr %8, align 4
  %73 = call ptr @pg_encoding_to_char_private(i32 noundef %72)
  %74 = call i32 (ptr, ...) @errdetail(ptr noundef @.str.78, ptr noundef %73)
  call void @errfinish(ptr noundef @.str.18, i32 noundef 1603, ptr noundef @__func__.check_encoding_locale_matches)
  br label %75

75:                                               ; preds = %66, %64, %62
  unreachable

76:                                               ; No predecessors!
  br label %77

77:                                               ; preds = %76
  br label %78

78:                                               ; preds = %77, %58, %52, %49, %45
  call void @llvm.lifetime.end.p0(i64 4, ptr %8) #14
  call void @llvm.lifetime.end.p0(i64 4, ptr %7) #14
  ret void
}