; Function Attrs: nounwind uwtable
define dso_local void @check_encoding_locale_matches(i32 noundef %0, ptr noundef %1, ptr noundef %2) local_unnamed_addr #0 {
  %4 = tail call i32 @pg_get_encoding_from_locale(ptr noundef %2, i1 noundef zeroext true) #16
  %5 = tail call i32 @pg_get_encoding_from_locale(ptr noundef %1, i1 noundef zeroext true) #16
  %6 = icmp eq i32 %4, %0
  %7 = add i32 %4, 1
  %8 = icmp ult i32 %7, 2
  %or.cond3 = or i1 %6, %8
  br i1 %or.cond3, label %20, label %9

9:                                                ; preds = %3
  %10 = icmp eq i32 %0, 0
  br i1 %10, label %11, label %13

11:                                               ; preds = %9
  %12 = tail call zeroext i1 @superuser() #16
  br i1 %12, label %.thread, label %13

13:                                               ; preds = %11, %9
  %14 = tail call zeroext i1 @errstart_cold(i32 noundef 21, ptr noundef null) #19
  tail call void @llvm.assume(i1 %14)
  %15 = tail call i32 @errcode(i32 noundef 50856066) #16
  %16 = tail call ptr @pg_encoding_to_char_private(i32 noundef %0) #16
  %17 = tail call i32 (ptr, ...) @errmsg(ptr noundef nonnull @.str.76, ptr noundef %16, ptr noundef %2) #16
  %18 = tail call ptr @pg_encoding_to_char_private(i32 noundef %4) #16
  %19 = tail call i32 (ptr, ...) @errdetail(ptr noundef nonnull @.str.77, ptr noundef %18) #16
  tail call void @errfinish(ptr noundef nonnull @.str.18, i32 noundef 1588, ptr noundef nonnull @__func__.check_encoding_locale_matches) #16
  unreachable

20:                                               ; preds = %3
  %21 = icmp eq i32 %5, %0
  %22 = add i32 %5, 1
  %23 = icmp ult i32 %22, 2
  %or.cond7 = or i1 %21, %23
  br i1 %or.cond7, label %36, label %26

.thread:                                          ; preds = %11
  %24 = add i32 %5, 1
  %25 = icmp ult i32 %24, 2
  br i1 %25, label %36, label %.thread27

26:                                               ; preds = %20
  %27 = icmp eq i32 %0, 0
  br i1 %27, label %.thread27, label %29

.thread27:                                        ; preds = %.thread, %26
  %28 = tail call zeroext i1 @superuser() #16
  br i1 %28, label %36, label %29

29:                                               ; preds = %.thread27, %26
  %30 = tail call zeroext i1 @errstart_cold(i32 noundef 21, ptr noundef null) #19
  tail call void @llvm.assume(i1 %30)
  %31 = tail call i32 @errcode(i32 noundef 50856066) #16
  %32 = tail call ptr @pg_encoding_to_char_private(i32 noundef %0) #16
  %33 = tail call i32 (ptr, ...) @errmsg(ptr noundef nonnull @.str.76, ptr noundef %32, ptr noundef %1) #16
  %34 = tail call ptr @pg_encoding_to_char_private(i32 noundef %5) #16
  %35 = tail call i32 (ptr, ...) @errdetail(ptr noundef nonnull @.str.78, ptr noundef %34) #16
  tail call void @errfinish(ptr noundef nonnull @.str.18, i32 noundef 1603, ptr noundef nonnull @__func__.check_encoding_locale_matches) #16
  unreachable

36:                                               ; preds = %.thread, %.thread27, %20
  ret void
}